; Function Attrs: nounwind sspstrong uwtable
define hidden ptr @rb_shape_transition_shape_frozen(i64 noundef %0) local_unnamed_addr #1 {
  %2 = alloca i8, align 1
  %3 = icmp eq i64 %0, 0
  %4 = and i64 %0, 7
  %5 = icmp ne i64 %4, 0
  %6 = or i1 %3, %5
  br i1 %6, label %rb_shape_get_shape.exit, label %rb_shape_get_shape.exit.thread

rb_shape_get_shape.exit:                          ; preds = %1
  %7 = load ptr, ptr @rb_shape_tree_ptr, align 8, !tbaa !7
  %8 = load ptr, ptr %7, align 8, !tbaa !16
  %9 = getelementptr i8, ptr %8, i64 40
  %10 = getelementptr i8, ptr %8, i64 64
  %11 = load i8, ptr %10, align 8, !tbaa !27
  %.not = icmp eq i8 %11, 2
  br i1 %.not, label %34, label %rb_shape_obj_too_complex.exit.thread

rb_shape_get_shape.exit.thread:                   ; preds = %1
  %12 = inttoptr i64 %0 to ptr
  %13 = load i64, ptr %12, align 8, !tbaa !24
  %14 = lshr i64 %13, 32
  %15 = load ptr, ptr @rb_shape_tree_ptr, align 8, !tbaa !7
  %16 = load ptr, ptr %15, align 8, !tbaa !16
  %17 = getelementptr %struct.rb_shape, ptr %16, i64 %14
  %18 = getelementptr inbounds nuw i8, ptr %17, i64 24
  %19 = load i8, ptr %18, align 8, !tbaa !27
  %.not11 = icmp eq i8 %19, 2
  br i1 %.not11, label %34, label %rb_shape_obj_too_complex.exit

rb_shape_obj_too_complex.exit:                    ; preds = %rb_shape_get_shape.exit.thread
  %20 = inttoptr i64 %0 to ptr
  %21 = load i64, ptr %20, align 8, !tbaa !24
  %.mask.i = and i64 %21, -4294967296
  %22 = icmp eq i64 %.mask.i, 8589934592
  br i1 %22, label %34, label %rb_shape_obj_too_complex.exit.thread

rb_shape_obj_too_complex.exit.thread:             ; preds = %rb_shape_get_shape.exit, %rb_shape_obj_too_complex.exit
  %23 = phi ptr [ %15, %rb_shape_obj_too_complex.exit ], [ %7, %rb_shape_get_shape.exit ]
  %24 = phi ptr [ %16, %rb_shape_obj_too_complex.exit ], [ %8, %rb_shape_get_shape.exit ]
  %25 = phi ptr [ %17, %rb_shape_obj_too_complex.exit ], [ %9, %rb_shape_get_shape.exit ]
  %26 = getelementptr inbounds nuw i8, ptr %23, i64 8
  %27 = load ptr, ptr %26, align 8, !tbaa !11
  %28 = icmp eq ptr %25, %27
  br i1 %28, label %29, label %31

29:                                               ; preds = %rb_shape_obj_too_complex.exit.thread
  %30 = getelementptr i8, ptr %24, i64 40
  br label %34

31:                                               ; preds = %rb_shape_obj_too_complex.exit.thread
  call void @llvm.lifetime.start.p0(i64 1, ptr nonnull %2) #15
  %32 = load i64, ptr @id_frozen, align 8, !tbaa !41
  %33 = call fastcc ptr @get_next_shape_internal(ptr noundef %25, i64 noundef %32, i32 noundef 2, ptr noundef %2, i1 noundef zeroext true)
  call void @llvm.lifetime.end.p0(i64 1, ptr nonnull %2) #15
  br label %34

34:                                               ; preds = %rb_shape_get_shape.exit.thread, %29, %31, %rb_shape_get_shape.exit, %rb_shape_obj_too_complex.exit
  %.0 = phi ptr [ %17, %rb_shape_obj_too_complex.exit ], [ %9, %rb_shape_get_shape.exit ], [ %30, %29 ], [ %33, %31 ], [ %17, %rb_shape_get_shape.exit.thread ]
  ret ptr %.0
}